target datalayout = "e-m:e-p270:32:32-p271:32:32-p272:64:64-i64:64-i128:128-f80:128-n8:16:32:64-S128"
target triple = "x86_64-pc-linux-gnu"

%class.CVQualifiers = type { ptr, i8, i8, %"class.std::vector", %"class.std::vector" }
%"class.std::vector" = type { %"struct.std::_Bvector_base" }
%"struct.std::_Bvector_base" = type { %"struct.std::_Bvector_base<std::allocator<bool>>::_Bvector_impl" }
%"struct.std::_Bvector_base<std::allocator<bool>>::_Bvector_impl" = type { %"struct.std::_Bvector_base<std::allocator<bool>>::_Bvector_impl_data" }
%"struct.std::_Bvector_base<std::allocator<bool>>::_Bvector_impl_data" = type { %"struct.std::_Bit_iterator", %"struct.std::_Bit_iterator", ptr }
%"struct.std::_Bit_iterator" = type { %"struct.std::_Bit_iterator_base.base", [4 x i8] }
%"struct.std::_Bit_iterator_base.base" = type <{ ptr, i32 }>

@_ZTV12CVQualifiers = dso_local unnamed_addr constant { [4 x ptr] } { [4 x ptr] [ptr null, ptr @_ZTI12CVQualifiers, ptr @_ZN12CVQualifiersD1Ev, ptr @_ZN12CVQualifiersD0Ev] }, align 8

; Function Attrs: mustprogress nounwind uwtable
define linkonce_odr dso_local noundef nonnull align 8 dereferenceable(40) ptr @_ZNK12CVQualifiers13get_volatilesEv(ptr noundef nonnull align 8 dereferenceable(96) %0) #4 comdat align 2 {
  %2 = alloca ptr, align 8
  store ptr %0, ptr %2, align 8
  %3 = load ptr, ptr %2, align 8
  %4 = getelementptr inbounds %class.CVQualifiers, ptr %3, i32 0, i32 4
  ret ptr %4
}

; Function Attrs: mustprogress nounwind uwtable
define linkonce_odr dso_local noundef nonnull align 8 dereferenceable(40) ptr @_ZNK12CVQualifiers10get_constsEv(ptr noundef nonnull align 8 dereferenceable(96) %0) #4 comdat align 2 {
  %2 = alloca ptr, align 8
  store ptr %0, ptr %2, align 8
  %3 = load ptr, ptr %2, align 8
  %4 = getelementptr inbounds %class.CVQualifiers, ptr %3, i32 0, i32 3
  ret ptr %4
}

; Function Attrs: mustprogress uwtable
define dso_local void @_ZN12CVQualifiersC2ERKS_(ptr noundef nonnull align 8 dereferenceable(96) %0, ptr noundef nonnull align 8 dereferenceable(96) %1) unnamed_addr #5 align 2 personality ptr @__gxx_personality_v0 {
  %3 = alloca ptr, align 8
  %4 = alloca ptr, align 8
  %5 = alloca ptr, align 8
  %6 = alloca i32, align 4
  store ptr %0, ptr %3, align 8
  store ptr %1, ptr %4, align 8
  %7 = load ptr, ptr %3, align 8
  store ptr getelementptr inbounds ({ [4 x ptr] }, ptr @_ZTV12CVQualifiers, i32 0, i32 0, i32 2), ptr %7, align 8
  %8 = getelementptr inbounds %class.CVQualifiers, ptr %7, i32 0, i32 1
  %9 = load ptr, ptr %4, align 8
  %10 = getelementptr inbounds %class.CVQualifiers, ptr %9, i32 0, i32 1
  %11 = load i8, ptr %10, align 8
  %12 = trunc i8 %11 to i1
  %13 = zext i1 %12 to i8
  store i8 %13, ptr %8, align 8
  %14 = getelementptr inbounds %class.CVQualifiers, ptr %7, i32 0, i32 2
  %15 = load ptr, ptr %4, align 8
  %16 = getelementptr inbounds %class.CVQualifiers, ptr %15, i32 0, i32 2
  %17 = load i8, ptr %16, align 1
  %18 = trunc i8 %17 to i1
  %19 = zext i1 %18 to i8
  store i8 %19, ptr %14, align 1
  %20 = getelementptr inbounds %class.CVQualifiers, ptr %7, i32 0, i32 3
  %21 = load ptr, ptr %4, align 8
  %22 = call noundef nonnull align 8 dereferenceable(40) ptr @_ZNK12CVQualifiers10get_constsEv(ptr noundef nonnull align 8 dereferenceable(96) %21)
  call void @_ZNSt6vectorIbSaIbEEC2ERKS1_(ptr noundef nonnull align 8 dereferenceable(40) %20, ptr noundef nonnull align 8 dereferenceable(40) %22)
  %23 = getelementptr inbounds %class.CVQualifiers, ptr %7, i32 0, i32 4
  %24 = load ptr, ptr %4, align 8
  %25 = invoke noundef nonnull align 8 dereferenceable(40) ptr @_ZNK12CVQualifiers13get_volatilesEv(ptr noundef nonnull align 8 dereferenceable(96) %24)
          to label %26 unwind label %28

26:                                               ; preds = %2
  invoke void @_ZNSt6vectorIbSaIbEEC2ERKS1_(ptr noundef nonnull align 8 dereferenceable(40) %23, ptr noundef nonnull align 8 dereferenceable(40) %25)
          to label %27 unwind label %28

27:                                               ; preds = %26
  ret void

28:                                               ; preds = %26, %2
  %29 = landingpad { ptr, i32 }
          cleanup
  %30 = extractvalue { ptr, i32 } %29, 0
  store ptr %30, ptr %5, align 8
  %31 = extractvalue { ptr, i32 } %29, 1
  store i32 %31, ptr %6, align 4
  call void @_ZNSt6vectorIbSaIbEED2Ev(ptr noundef nonnull align 8 dereferenceable(40) %20) #3
  br label %32

32:                                               ; preds = %28
  %33 = load ptr, ptr %5, align 8
  %34 = load i32, ptr %6, align 4
  %35 = insertvalue { ptr, i32 } poison, ptr %33, 0
  %36 = insertvalue { ptr, i32 } %35, i32 %34, 1
  resume { ptr, i32 } %36
}