; Function Attrs: mustprogress uwtable
define dso_local void @_ZN12CVQualifiersC2ERKS_(ptr noundef nonnull align 8 dereferenceable(96) %0, ptr noundef nonnull align 8 dereferenceable(96) %1) unnamed_addr #4 align 2 personality ptr @__gxx_personality_v0 {
  store ptr getelementptr inbounds ({ [4 x ptr] }, ptr @_ZTV12CVQualifiers, i64 0, i32 0, i64 2), ptr %0, align 8
  %3 = getelementptr inbounds i8, ptr %0, i64 8
  %4 = getelementptr inbounds i8, ptr %1, i64 8
  %5 = load i8, ptr %4, align 8
  %6 = and i8 %5, 1
  store i8 %6, ptr %3, align 8
  %7 = getelementptr inbounds i8, ptr %0, i64 9
  %8 = getelementptr inbounds i8, ptr %1, i64 9
  %9 = load i8, ptr %8, align 1
  %10 = and i8 %9, 1
  store i8 %10, ptr %7, align 1
  %11 = getelementptr inbounds i8, ptr %0, i64 16
  %12 = getelementptr inbounds i8, ptr %1, i64 16
  tail call void @_ZNSt6vectorIbSaIbEEC2ERKS1_(ptr noundef nonnull align 8 dereferenceable(40) %11, ptr noundef nonnull align 8 dereferenceable(40) %12)
  %13 = getelementptr inbounds i8, ptr %0, i64 56
  %14 = getelementptr inbounds i8, ptr %1, i64 56
  invoke void @_ZNSt6vectorIbSaIbEEC2ERKS1_(ptr noundef nonnull align 8 dereferenceable(40) %13, ptr noundef nonnull align 8 dereferenceable(40) %14)
          to label %15 unwind label %16

15:                                               ; preds = %2
  ret void

16:                                               ; preds = %2
  %17 = landingpad { ptr, i32 }
          cleanup
  tail call void @_ZNSt6vectorIbSaIbEED2Ev(ptr noundef nonnull align 8 dereferenceable(40) %11) #18
  resume { ptr, i32 } %17
}